target datalayout = "e-m:e-p270:32:32-p271:32:32-p272:64:64-i64:64-i128:128-f80:128-n8:16:32:64-S128"
target triple = "x86_64-pc-linux-gnu"

%struct.expert_field = type { i32, i32 }
%struct.ext_value_string_t = type { i32, ptr, i32 }

@ansi_a_elem_1_strings = global ptr null, align 8
@.str.282 = private unnamed_addr constant [1 x i8] zeroinitializer, align 1
@ei_ansi_a_extraneous_data = internal global %struct.expert_field zeroinitializer, align 4
@ei_ansi_a_missing_mand_elem = internal global %struct.expert_field zeroinitializer, align 4
@.str.1753 = private unnamed_addr constant [71 x i8] c"Missing Mandatory element (0x%02x) %s%s, rest of dissection is suspect\00", align 1

; Function Attrs: null_pointer_is_valid sspstrong uwtable
define internal void @bsmap_adds_page_ack(ptr noundef %0, ptr noundef %1, ptr noundef %2, i32 noundef %3, i32 noundef %4, ptr noundef %5) #1 {
  %7 = alloca ptr, align 8
  %8 = alloca ptr, align 8
  %9 = alloca ptr, align 8
  %10 = alloca i32, align 4
  %11 = alloca i32, align 4
  %12 = alloca ptr, align 8
  %13 = alloca i32, align 4
  %14 = alloca i32, align 4
  %15 = alloca i32, align 4
  %16 = alloca i32, align 4
  store ptr %0, ptr %7, align 8
  store ptr %1, ptr %8, align 8
  store ptr %2, ptr %9, align 8
  store i32 %3, ptr %10, align 4
  store i32 %4, ptr %11, align 4
  store ptr %5, ptr %12, align 8
  call void @llvm.lifetime.start.p0(i64 4, ptr %13) #8
  call void @llvm.lifetime.start.p0(i64 4, ptr %14) #8
  call void @llvm.lifetime.start.p0(i64 4, ptr %15) #8
  %17 = load i32, ptr %10, align 4
  store i32 %17, ptr %13, align 4
  %18 = load i32, ptr %11, align 4
  store i32 %18, ptr %15, align 4
  %19 = load ptr, ptr %7, align 8
  %20 = load ptr, ptr %8, align 8
  %21 = load ptr, ptr %9, align 8
  %22 = load i32, ptr %13, align 4
  %23 = load i32, ptr %15, align 4
  %24 = load ptr, ptr %12, align 8
  %25 = call zeroext i16 @elem_tlv(ptr noundef %19, ptr noundef %20, ptr noundef %21, i32 noundef 47, i32 noundef %22, i32 noundef %23, ptr noundef @.str.282, ptr noundef %24)
  %26 = zext i16 %25 to i32
  store i32 %26, ptr %14, align 4
  %27 = icmp ugt i32 %26, 0
  br i1 %27, label %28, label %35

28:                                               ; preds = %6
  %29 = load i32, ptr %14, align 4
  %30 = load i32, ptr %13, align 4
  %31 = add i32 %30, %29
  store i32 %31, ptr %13, align 4
  %32 = load i32, ptr %14, align 4
  %33 = load i32, ptr %15, align 4
  %34 = sub i32 %33, %32
  store i32 %34, ptr %15, align 4
  br label %49

35:                                               ; preds = %6
  %36 = load ptr, ptr %9, align 8
  %37 = load ptr, ptr %8, align 8
  %38 = load ptr, ptr %7, align 8
  %39 = load i32, ptr %13, align 4
  %40 = load ptr, ptr @ansi_a_elem_1_strings, align 8
  %41 = getelementptr %struct.ext_value_string_t, ptr %40, i64 47
  %42 = getelementptr inbounds nuw %struct.ext_value_string_t, ptr %41, i32 0, i32 0
  %43 = load i32, ptr %42, align 8
  %44 = load ptr, ptr @ansi_a_elem_1_strings, align 8
  %45 = getelementptr %struct.ext_value_string_t, ptr %44, i64 47
  %46 = getelementptr inbounds nuw %struct.ext_value_string_t, ptr %45, i32 0, i32 1
  %47 = load ptr, ptr %46, align 8
  %48 = call ptr (ptr, ptr, ptr, ptr, i32, i32, ptr, ...) @proto_tree_add_expert_format(ptr noundef %36, ptr noundef %37, ptr noundef @ei_ansi_a_missing_mand_elem, ptr noundef %38, i32 noundef %39, i32 noundef 0, ptr noundef @.str.1753, i32 noundef %43, ptr noundef %47, ptr noundef @.str.282)
  br label %49

49:                                               ; preds = %35, %28
  %50 = load i32, ptr %15, align 4
  %51 = icmp ule i32 %50, 0
  br i1 %51, label %52, label %53

52:                                               ; preds = %49
  store i32 1, ptr %16, align 4
  br label %173

53:                                               ; preds = %49
  %54 = load ptr, ptr %7, align 8
  %55 = load ptr, ptr %8, align 8
  %56 = load ptr, ptr %9, align 8
  %57 = load i32, ptr %13, align 4
  %58 = load ptr, ptr %12, align 8
  %59 = call zeroext i16 @elem_tv(ptr noundef %54, ptr noundef %55, ptr noundef %56, i32 noundef 78, i32 noundef %57, ptr noundef @.str.282, ptr noundef %58)
  %60 = zext i16 %59 to i32
  store i32 %60, ptr %14, align 4
  %61 = icmp ugt i32 %60, 0
  br i1 %61, label %62, label %69

62:                                               ; preds = %53
  %63 = load i32, ptr %14, align 4
  %64 = load i32, ptr %13, align 4
  %65 = add i32 %64, %63
  store i32 %65, ptr %13, align 4
  %66 = load i32, ptr %14, align 4
  %67 = load i32, ptr %15, align 4
  %68 = sub i32 %67, %66
  store i32 %68, ptr %15, align 4
  br label %69

69:                                               ; preds = %62, %53
  %70 = load i32, ptr %15, align 4
  %71 = icmp ule i32 %70, 0
  br i1 %71, label %72, label %73

72:                                               ; preds = %69
  store i32 1, ptr %16, align 4
  br label %173

73:                                               ; preds = %69
  %74 = load ptr, ptr %7, align 8
  %75 = load ptr, ptr %8, align 8
  %76 = load ptr, ptr %9, align 8
  %77 = load i32, ptr %13, align 4
  %78 = load i32, ptr %15, align 4
  %79 = load ptr, ptr %12, align 8
  %80 = call zeroext i16 @elem_tlv(ptr noundef %74, ptr noundef %75, ptr noundef %76, i32 noundef 47, i32 noundef %77, i32 noundef %78, ptr noundef @.str.282, ptr noundef %79)
  %81 = zext i16 %80 to i32
  store i32 %81, ptr %14, align 4
  %82 = icmp ugt i32 %81, 0
  br i1 %82, label %83, label %90

83:                                               ; preds = %73
  %84 = load i32, ptr %14, align 4
  %85 = load i32, ptr %13, align 4
  %86 = add i32 %85, %84
  store i32 %86, ptr %13, align 4
  %87 = load i32, ptr %14, align 4
  %88 = load i32, ptr %15, align 4
  %89 = sub i32 %88, %87
  store i32 %89, ptr %15, align 4
  br label %90

90:                                               ; preds = %83, %73
  %91 = load i32, ptr %15, align 4
  %92 = icmp ule i32 %91, 0
  br i1 %92, label %93, label %94

93:                                               ; preds = %90
  store i32 1, ptr %16, align 4
  br label %173

94:                                               ; preds = %90
  %95 = load ptr, ptr %7, align 8
  %96 = load ptr, ptr %8, align 8
  %97 = load ptr, ptr %9, align 8
  %98 = load i32, ptr %13, align 4
  %99 = load i32, ptr %15, align 4
  %100 = load ptr, ptr %12, align 8
  %101 = call zeroext i16 @elem_tlv(ptr noundef %95, ptr noundef %96, ptr noundef %97, i32 noundef 15, i32 noundef %98, i32 noundef %99, ptr noundef @.str.282, ptr noundef %100)
  %102 = zext i16 %101 to i32
  store i32 %102, ptr %14, align 4
  %103 = icmp ugt i32 %102, 0
  br i1 %103, label %104, label %111

104:                                              ; preds = %94
  %105 = load i32, ptr %14, align 4
  %106 = load i32, ptr %13, align 4
  %107 = add i32 %106, %105
  store i32 %107, ptr %13, align 4
  %108 = load i32, ptr %14, align 4
  %109 = load i32, ptr %15, align 4
  %110 = sub i32 %109, %108
  store i32 %110, ptr %15, align 4
  br label %111

111:                                              ; preds = %104, %94
  %112 = load i32, ptr %15, align 4
  %113 = icmp ule i32 %112, 0
  br i1 %113, label %114, label %115

114:                                              ; preds = %111
  store i32 1, ptr %16, align 4
  br label %173

115:                                              ; preds = %111
  %116 = load ptr, ptr %7, align 8
  %117 = load ptr, ptr %8, align 8
  %118 = load ptr, ptr %9, align 8
  %119 = load i32, ptr %13, align 4
  %120 = load i32, ptr %15, align 4
  %121 = load ptr, ptr %12, align 8
  %122 = call zeroext i16 @elem_tlv(ptr noundef %116, ptr noundef %117, ptr noundef %118, i32 noundef 18, i32 noundef %119, i32 noundef %120, ptr noundef @.str.282, ptr noundef %121)
  %123 = zext i16 %122 to i32
  store i32 %123, ptr %14, align 4
  %124 = icmp ugt i32 %123, 0
  br i1 %124, label %125, label %132

125:                                              ; preds = %115
  %126 = load i32, ptr %14, align 4
  %127 = load i32, ptr %13, align 4
  %128 = add i32 %127, %126
  store i32 %128, ptr %13, align 4
  %129 = load i32, ptr %14, align 4
  %130 = load i32, ptr %15, align 4
  %131 = sub i32 %130, %129
  store i32 %131, ptr %15, align 4
  br label %132

132:                                              ; preds = %125, %115
  %133 = load i32, ptr %15, align 4
  %134 = icmp ule i32 %133, 0
  br i1 %134, label %135, label %136

135:                                              ; preds = %132
  store i32 1, ptr %16, align 4
  br label %173

136:                                              ; preds = %132
  %137 = load ptr, ptr %7, align 8
  %138 = load ptr, ptr %8, align 8
  %139 = load ptr, ptr %9, align 8
  %140 = load i32, ptr %13, align 4
  %141 = load i32, ptr %15, align 4
  %142 = load ptr, ptr %12, align 8
  %143 = call zeroext i16 @elem_tlv(ptr noundef %137, ptr noundef %138, ptr noundef %139, i32 noundef 47, i32 noundef %140, i32 noundef %141, ptr noundef @.str.282, ptr noundef %142)
  %144 = zext i16 %143 to i32
  store i32 %144, ptr %14, align 4
  %145 = icmp ugt i32 %144, 0
  br i1 %145, label %146, label %153

146:                                              ; preds = %136
  %147 = load i32, ptr %14, align 4
  %148 = load i32, ptr %13, align 4
  %149 = add i32 %148, %147
  store i32 %149, ptr %13, align 4
  %150 = load i32, ptr %14, align 4
  %151 = load i32, ptr %15, align 4
  %152 = sub i32 %151, %150
  store i32 %152, ptr %15, align 4
  br label %153

153:                                              ; preds = %146, %136
  %154 = load i32, ptr %15, align 4
  %155 = icmp ule i32 %154, 0
  br i1 %155, label %156, label %157

156:                                              ; preds = %153
  store i32 1, ptr %16, align 4
  br label %173

157:                                              ; preds = %153
  %158 = load i32, ptr %15, align 4
  %159 = icmp ugt i32 %158, 0
  br i1 %159, label %160, label %172

160:                                              ; preds = %157
  %161 = load ptr, ptr %9, align 8
  %162 = load ptr, ptr %8, align 8
  %163 = load ptr, ptr %7, align 8
  %164 = load i32, ptr %13, align 4
  %165 = load i32, ptr %15, align 4
  %166 = sub i32 %165, 0
  %167 = call ptr @proto_tree_add_expert(ptr noundef %161, ptr noundef %162, ptr noundef @ei_ansi_a_extraneous_data, ptr noundef %163, i32 noundef %164, i32 noundef %166)
  %168 = load i32, ptr %15, align 4
  %169 = sub i32 %168, 0
  %170 = load i32, ptr %13, align 4
  %171 = add i32 %170, %169
  store i32 %171, ptr %13, align 4
  br label %172

172:                                              ; preds = %160, %157
  store i32 0, ptr %16, align 4
  br label %173

173:                                              ; preds = %172, %156, %135, %114, %93, %72, %52
  call void @llvm.lifetime.end.p0(i64 4, ptr %15) #8
  call void @llvm.lifetime.end.p0(i64 4, ptr %14) #8
  call void @llvm.lifetime.end.p0(i64 4, ptr %13) #8
  %174 = load i32, ptr %16, align 4
  switch i32 %174, label %176 [
    i32 0, label %175
    i32 1, label %175
  ]

175:                                              ; preds = %173, %173
  ret void

176:                                              ; preds = %173
  unreachable
}